; Function Attrs: mustprogress uwtable
define void @_ZN6casadi2MX4sum2ERKS0_(ptr dead_on_unwind noalias writable sret(%"class.casadi::MX") align 8 %0, ptr noundef nonnull align 8 dereferenceable(8) %1) local_unnamed_addr #3 align 2 personality ptr @__gxx_personality_v0 {
  %3 = alloca %"class.casadi::Sparsity", align 8
  %4 = alloca %"class.casadi::MX", align 8
  %5 = tail call noundef ptr @_ZNK6casadi12SharedObjectptEv(ptr noundef nonnull align 8 dereferenceable(8) %1)
  %6 = getelementptr inbounds i8, ptr %5, i64 56
  %7 = tail call noundef i64 @_ZNK6casadi8Sparsity5size2Ev(ptr noundef nonnull align 8 dereferenceable(8) %6)
  call void @llvm.lifetime.start.p0(i64 8, ptr nonnull %3)
  call void @_ZN6casadi8Sparsity5denseExx(ptr dead_on_unwind nonnull writable sret(%"class.casadi::Sparsity") align 8 %3, i64 noundef %7, i64 noundef 1), !noalias !623
  invoke void @_ZN6casadi2MXC1ERKNS_8SparsityEdb(ptr noundef nonnull align 8 dereferenceable(8) %4, ptr noundef nonnull align 8 dereferenceable(8) %3, double noundef 1.000000e+00, i1 noundef zeroext false)
          to label %_ZN6casadi13GenericMatrixINS_2MXEE4onesExx.exit unwind label %8

common.resume:                                    ; preds = %11, %8
  %common.resume.op = phi { ptr, i32 } [ %9, %8 ], [ %12, %11 ]
  resume { ptr, i32 } %common.resume.op

8:                                                ; preds = %2
  %9 = landingpad { ptr, i32 }
          cleanup
  call void @_ZN6casadi12SharedObjectD2Ev(ptr noundef nonnull align 8 dereferenceable(8) %3) #27
  br label %common.resume

_ZN6casadi13GenericMatrixINS_2MXEE4onesExx.exit:  ; preds = %2
  call void @_ZN6casadi12SharedObjectD2Ev(ptr noundef nonnull align 8 dereferenceable(8) %3) #27
  call void @llvm.lifetime.end.p0(i64 8, ptr nonnull %3)
  invoke void @_ZN6casadi2MX6mtimesERKS0_S2_(ptr dead_on_unwind writable sret(%"class.casadi::MX") align 8 %0, ptr noundef nonnull align 8 dereferenceable(8) %1, ptr noundef nonnull align 8 dereferenceable(8) %4)
          to label %10 unwind label %11

10:                                               ; preds = %_ZN6casadi13GenericMatrixINS_2MXEE4onesExx.exit
  call void @_ZN6casadi2MXD1Ev(ptr noundef nonnull align 8 dereferenceable(8) %4) #27
  ret void

11:                                               ; preds = %_ZN6casadi13GenericMatrixINS_2MXEE4onesExx.exit
  %12 = landingpad { ptr, i32 }
          cleanup
  call void @_ZN6casadi2MXD1Ev(ptr noundef nonnull align 8 dereferenceable(8) %4) #27
  br label %common.resume
}